target datalayout = "e-m:e-p270:32:32-p271:32:32-p272:64:64-i64:64-i128:128-f80:128-n8:16:32:64-S128"
target triple = "x86_64-pc-linux-gnu"

%struct.gmx_ana_selvalue_t = type { i32, i32, %union.anon, i32 }
%union.anon = type { ptr }

; Function Attrs: mustprogress nounwind uwtable
define void @_Z22_gmx_selvalue_setstoreP18gmx_ana_selvalue_tPv(ptr noundef %0, ptr noundef %1) #0 {
  %3 = alloca ptr, align 8
  %4 = alloca ptr, align 8
  store ptr %0, ptr %3, align 8, !tbaa !4
  store ptr %1, ptr %4, align 8, !tbaa !19
  %5 = load ptr, ptr %4, align 8, !tbaa !19
  %6 = load ptr, ptr %3, align 8, !tbaa !4
  %7 = getelementptr inbounds nuw %struct.gmx_ana_selvalue_t, ptr %6, i32 0, i32 2
  store ptr %5, ptr %7, align 8, !tbaa !13
  %8 = load ptr, ptr %4, align 8, !tbaa !19
  %9 = icmp ne ptr %8, null
  %10 = select i1 %9, i32 -1, i32 0
  %11 = load ptr, ptr %3, align 8, !tbaa !4
  %12 = getelementptr inbounds nuw %struct.gmx_ana_selvalue_t, ptr %11, i32 0, i32 3
  store i32 %10, ptr %12, align 8, !tbaa !14
  ret void
}