; Function Attrs: mustprogress nofree norecurse nosync nounwind willreturn memory(argmem: write) uwtable
define void @_Z22_gmx_selvalue_setstoreP18gmx_ana_selvalue_tPv(ptr noundef writeonly captures(none) initializes((8, 20)) %0, ptr noundef %1) local_unnamed_addr #0 {
  %3 = getelementptr inbounds nuw i8, ptr %0, i64 8
  store ptr %1, ptr %3, align 8, !tbaa !11
  %.not = icmp ne ptr %1, null
  %4 = sext i1 %.not to i32
  %5 = getelementptr inbounds nuw i8, ptr %0, i64 16
  store i32 %4, ptr %5, align 8, !tbaa !4
  ret void
}